; Function Attrs: mustprogress nounwind uwtable
define hidden void @_ZN12ZJNICritical5blockEv() local_unnamed_addr #1 align 2 {
  br label %.backedge

.backedge:                                        ; preds = %.backedge.backedge, %0
  %1 = load volatile i64, ptr @_ZN12ZJNICritical6_countE, align 8
  tail call void asm sideeffect "", "~{memory},~{dirflag},~{fpsr},~{flags}"() #6, !srcloc !6
  %2 = icmp slt i64 %1, 0
  br i1 %2, label %3, label %15

3:                                                ; preds = %.backedge
  %4 = load ptr, ptr @_ZN12ZJNICritical5_lockE, align 8
  %.not.i = icmp eq ptr %4, null
  br i1 %.not.i, label %_ZN7ZLockerI14ZConditionLockEC2EPS0_.exit, label %5

5:                                                ; preds = %3
  %6 = tail call i32 @pthread_mutex_lock(ptr noundef nonnull %4) #6
  br label %_ZN7ZLockerI14ZConditionLockEC2EPS0_.exit

_ZN7ZLockerI14ZConditionLockEC2EPS0_.exit:        ; preds = %3, %5
  %7 = load volatile i64, ptr @_ZN12ZJNICritical6_countE, align 8
  tail call void asm sideeffect "", "~{memory},~{dirflag},~{fpsr},~{flags}"() #6, !srcloc !6
  %8 = icmp slt i64 %7, 0
  br i1 %8, label %.lr.ph, label %._crit_edge

.lr.ph:                                           ; preds = %_ZN7ZLockerI14ZConditionLockEC2EPS0_.exit, %.lr.ph
  %9 = load ptr, ptr @_ZN12ZJNICritical5_lockE, align 8
  %10 = tail call noundef i32 @_ZN15PlatformMonitor4waitEm(ptr noundef nonnull align 8 dereferenceable(88) %9, i64 noundef 0) #6
  %11 = load volatile i64, ptr @_ZN12ZJNICritical6_countE, align 8
  tail call void asm sideeffect "", "~{memory},~{dirflag},~{fpsr},~{flags}"() #6, !srcloc !6
  %12 = icmp slt i64 %11, 0
  br i1 %12, label %.lr.ph, label %._crit_edge, !llvm.loop !7

._crit_edge:                                      ; preds = %.lr.ph, %_ZN7ZLockerI14ZConditionLockEC2EPS0_.exit
  br i1 %.not.i, label %.backedge.backedge, label %13

13:                                               ; preds = %._crit_edge
  %14 = tail call i32 @pthread_mutex_unlock(ptr noundef nonnull %4) #6
  br label %.backedge.backedge

.backedge.backedge:                               ; preds = %13, %._crit_edge, %15
  br label %.backedge, !llvm.loop !9

15:                                               ; preds = %.backedge
  %16 = xor i64 %1, -1
  %17 = tail call noundef i64 asm sideeffect "lock cmpxchgq $1,($3)", "={ax},r,{ax},r,~{cc},~{memory},~{dirflag},~{fpsr},~{flags}"(i64 %16, i64 %1, ptr nonnull @_ZN12ZJNICritical6_countE) #6, !srcloc !10
  %.not = icmp eq i64 %17, %1
  br i1 %.not, label %18, label %.backedge.backedge

18:                                               ; preds = %15
  %.not5 = icmp eq i64 %1, 0
  br i1 %.not5, label %_ZN7ZLockerI14ZConditionLockED2Ev.exit11, label %19

19:                                               ; preds = %18
  %20 = load ptr, ptr @_ZN12ZJNICritical5_lockE, align 8
  %.not.i8 = icmp eq ptr %20, null
  br i1 %.not.i8, label %_ZN7ZLockerI14ZConditionLockEC2EPS0_.exit9, label %21

21:                                               ; preds = %19
  %22 = tail call i32 @pthread_mutex_lock(ptr noundef nonnull %20) #6
  br label %_ZN7ZLockerI14ZConditionLockEC2EPS0_.exit9

_ZN7ZLockerI14ZConditionLockEC2EPS0_.exit9:       ; preds = %19, %21
  %23 = load volatile i64, ptr @_ZN12ZJNICritical6_countE, align 8
  tail call void asm sideeffect "", "~{memory},~{dirflag},~{fpsr},~{flags}"() #6, !srcloc !6
  %.not613 = icmp eq i64 %23, -1
  br i1 %.not613, label %._crit_edge15, label %.lr.ph14

.lr.ph14:                                         ; preds = %_ZN7ZLockerI14ZConditionLockEC2EPS0_.exit9, %.lr.ph14
  %24 = load ptr, ptr @_ZN12ZJNICritical5_lockE, align 8
  %25 = tail call noundef i32 @_ZN15PlatformMonitor4waitEm(ptr noundef nonnull align 8 dereferenceable(88) %24, i64 noundef 0) #6
  %26 = load volatile i64, ptr @_ZN12ZJNICritical6_countE, align 8
  tail call void asm sideeffect "", "~{memory},~{dirflag},~{fpsr},~{flags}"() #6, !srcloc !6
  %.not6 = icmp eq i64 %26, -1
  br i1 %.not6, label %._crit_edge15, label %.lr.ph14, !llvm.loop !11

._crit_edge15:                                    ; preds = %.lr.ph14, %_ZN7ZLockerI14ZConditionLockEC2EPS0_.exit9
  br i1 %.not.i8, label %_ZN7ZLockerI14ZConditionLockED2Ev.exit11, label %27

27:                                               ; preds = %._crit_edge15
  %28 = tail call i32 @pthread_mutex_unlock(ptr noundef nonnull %20) #6
  br label %_ZN7ZLockerI14ZConditionLockED2Ev.exit11

_ZN7ZLockerI14ZConditionLockED2Ev.exit11:         ; preds = %27, %._crit_edge15, %18
  ret void
}